target datalayout = "e-m:e-p270:32:32-p271:32:32-p272:64:64-i64:64-i128:128-f80:128-n8:16:32:64-S128"
target triple = "x86_64-pc-linux-gnu"

; Function Attrs: nounwind uwtable
define internal zeroext i1 @char_is_lower(i8 noundef signext %0) #0 {
  %2 = alloca i8, align 1
  store i8 %0, ptr %2, align 1
  %3 = load i8, ptr %2, align 1
  %4 = sext i8 %3 to i32
  %5 = icmp sge i32 %4, 97
  br i1 %5, label %6, label %10

6:                                                ; preds = %1
  %7 = load i8, ptr %2, align 1
  %8 = sext i8 %7 to i32
  %9 = icmp sle i32 %8, 122
  br label %10

10:                                               ; preds = %6, %1
  %11 = phi i1 [ false, %1 ], [ %9, %6 ]
  ret i1 %11
}

; Function Attrs: nounwind uwtable
define internal zeroext i1 @char_is_upper(i8 noundef signext %0) #0 {
  %2 = alloca i8, align 1
  store i8 %0, ptr %2, align 1
  %3 = load i8, ptr %2, align 1
  %4 = sext i8 %3 to i32
  %5 = icmp sge i32 %4, 65
  br i1 %5, label %6, label %10

6:                                                ; preds = %1
  %7 = load i8, ptr %2, align 1
  %8 = sext i8 %7 to i32
  %9 = icmp sle i32 %8, 90
  br label %10

10:                                               ; preds = %6, %1
  %11 = phi i1 [ false, %1 ], [ %9, %6 ]
  ret i1 %11
}

; Function Attrs: nounwind uwtable
define internal ptr @scan_past_underscore(ptr noundef %0) #0 {
  %2 = alloca ptr, align 8
  %3 = alloca ptr, align 8
  store ptr %0, ptr %3, align 8
  br label %4

4:                                                ; preds = %10, %1
  %5 = load ptr, ptr %3, align 8
  %6 = getelementptr inbounds i8, ptr %5, i64 0
  %7 = load i8, ptr %6, align 1
  %8 = sext i8 %7 to i32
  %9 = icmp eq i32 %8, 95
  br i1 %9, label %10, label %13

10:                                               ; preds = %4
  %11 = load ptr, ptr %3, align 8
  %12 = getelementptr inbounds i8, ptr %11, i32 1
  store ptr %12, ptr %3, align 8
  br label %4, !llvm.loop !13

13:                                               ; preds = %4
  %14 = load ptr, ptr %3, align 8
  %15 = getelementptr inbounds i8, ptr %14, i64 0
  %16 = load i8, ptr %15, align 1
  %17 = sext i8 %16 to i32
  %18 = icmp eq i32 %17, 0
  br i1 %18, label %19, label %20

19:                                               ; preds = %13
  store ptr null, ptr %2, align 8
  br label %22

20:                                               ; preds = %13
  %21 = load ptr, ptr %3, align 8
  store ptr %21, ptr %2, align 8
  br label %22

22:                                               ; preds = %20, %19
  %23 = load ptr, ptr %2, align 8
  ret ptr %23
}

; Function Attrs: nounwind uwtable
define dso_local zeroext i1 @str_is_type(ptr noundef %0) #0 {
  %2 = alloca i1, align 1
  %3 = alloca ptr, align 8
  %4 = alloca i8, align 1
  %5 = alloca i8, align 1
  store ptr %0, ptr %3, align 8
  %6 = load ptr, ptr %3, align 8
  %7 = call ptr @scan_past_underscore(ptr noundef %6)
  store ptr %7, ptr %3, align 8
  %8 = load ptr, ptr %3, align 8
  %9 = icmp ne ptr %8, null
  br i1 %9, label %11, label %10

10:                                               ; preds = %1
  store i1 false, ptr %2, align 1
  br label %38

11:                                               ; preds = %1
  %12 = load ptr, ptr %3, align 8
  %13 = getelementptr inbounds i8, ptr %12, i32 1
  store ptr %13, ptr %3, align 8
  %14 = getelementptr inbounds i8, ptr %12, i64 0
  %15 = load i8, ptr %14, align 1
  store i8 %15, ptr %4, align 1
  %16 = load i8, ptr %4, align 1
  %17 = call zeroext i1 @char_is_upper(i8 noundef signext %16)
  br i1 %17, label %19, label %18

18:                                               ; preds = %11
  store i1 false, ptr %2, align 1
  br label %38

19:                                               ; preds = %11
  store i8 0, ptr %5, align 1
  br label %20

20:                                               ; preds = %34, %29, %19
  %21 = load ptr, ptr %3, align 8
  %22 = getelementptr inbounds i8, ptr %21, i32 1
  store ptr %22, ptr %3, align 8
  %23 = load i8, ptr %21, align 1
  store i8 %23, ptr %4, align 1
  %24 = sext i8 %23 to i32
  %25 = icmp ne i32 %24, 0
  br i1 %25, label %26, label %35

26:                                               ; preds = %20
  %27 = load i8, ptr %4, align 1
  %28 = call zeroext i1 @char_is_lower(i8 noundef signext %27)
  br i1 %28, label %29, label %30

29:                                               ; preds = %26
  store i8 1, ptr %5, align 1
  br label %20, !llvm.loop !12

30:                                               ; preds = %26
  %31 = load i8, ptr %4, align 1
  %32 = call zeroext i1 @char_is_alphanum_(i8 noundef signext %31)
  br i1 %32, label %34, label %33

33:                                               ; preds = %30
  store i1 false, ptr %2, align 1
  br label %38

34:                                               ; preds = %30
  br label %20, !llvm.loop !12

35:                                               ; preds = %20
  %36 = load i8, ptr %5, align 1
  %37 = trunc i8 %36 to i1
  store i1 %37, ptr %2, align 1
  br label %38

38:                                               ; preds = %35, %33, %18, %10
  %39 = load i1, ptr %2, align 1
  ret i1 %39
}