; Function Attrs: nofree norecurse nosync nounwind memory(read, inaccessiblemem: none) uwtable
define dso_local noundef zeroext i1 @str_is_type(ptr nocapture noundef readonly %0) local_unnamed_addr #2 {
  br label %2

2:                                                ; preds = %4, %1
  %.0.i = phi ptr [ %0, %1 ], [ %5, %4 ]
  %3 = load i8, ptr %.0.i, align 1
  switch i8 %3, label %scan_past_underscore.exit [
    i8 95, label %4
    i8 0, label %scan_past_underscore.exit.thread
  ]

4:                                                ; preds = %2
  %5 = getelementptr inbounds i8, ptr %.0.i, i64 1
  br label %2, !llvm.loop !12

scan_past_underscore.exit:                        ; preds = %2
  %6 = add i8 %3, -65
  %7 = icmp ult i8 %6, 26
  br i1 %7, label %8, label %scan_past_underscore.exit.thread

8:                                                ; preds = %scan_past_underscore.exit
  %9 = getelementptr inbounds i8, ptr %.0.i, i64 1
  br label %.outer

.outer:                                           ; preds = %13, %8
  %.08.ph = phi ptr [ %9, %8 ], [ %11, %13 ]
  %.0.ph = phi i1 [ false, %8 ], [ true, %13 ]
  br label %10

10:                                               ; preds = %.outer, %16
  %.08 = phi ptr [ %11, %16 ], [ %.08.ph, %.outer ]
  %11 = getelementptr inbounds i8, ptr %.08, i64 1
  %12 = load i8, ptr %.08, align 1
  %.not11 = icmp eq i8 %12, 0
  br i1 %.not11, label %scan_past_underscore.exit.thread, label %13

13:                                               ; preds = %10
  %14 = add i8 %12, -97
  %15 = icmp ult i8 %14, 26
  br i1 %15, label %.outer, label %16, !llvm.loop !13

16:                                               ; preds = %13
  %17 = tail call fastcc zeroext i1 @char_is_alphanum_(i8 noundef signext %12)
  br i1 %17, label %10, label %scan_past_underscore.exit.thread, !llvm.loop !13

scan_past_underscore.exit.thread:                 ; preds = %2, %10, %16, %scan_past_underscore.exit
  %.09 = phi i1 [ false, %scan_past_underscore.exit ], [ %.0.ph, %10 ], [ false, %16 ], [ false, %2 ]
  ret i1 %.09
}